target datalayout = "e-m:e-p270:32:32-p271:32:32-p272:64:64-i64:64-i128:128-f80:128-n8:16:32:64-S128"
target triple = "x86_64-pc-linux-gnu"

@_mi_prim_random_buf.no_getrandom = internal global i64 0, align 8
@.str.2 = private unnamed_addr constant [13 x i8] c"/dev/urandom\00", align 1

; Function Attrs: inlinehint nounwind uwtable
define internal i32 @mi_prim_close(i32 noundef %0) #5 {
  %2 = alloca i32, align 4
  store i32 %0, ptr %2, align 4, !tbaa !19
  %3 = load i32, ptr %2, align 4, !tbaa !19
  %4 = call i64 (i64, ...) @syscall(i64 noundef 3, i32 noundef %3) #7
  %5 = trunc i64 %4 to i32
  ret i32 %5
}

; Function Attrs: inlinehint nounwind uwtable
define internal i64 @mi_prim_read(i32 noundef %0, ptr noundef %1, i64 noundef %2) #5 {
  %4 = alloca i32, align 4
  %5 = alloca ptr, align 8
  %6 = alloca i64, align 8
  store i32 %0, ptr %4, align 4, !tbaa !19
  store ptr %1, ptr %5, align 8, !tbaa !25
  store i64 %2, ptr %6, align 8, !tbaa !8
  %7 = load i32, ptr %4, align 4, !tbaa !19
  %8 = load ptr, ptr %5, align 8, !tbaa !25
  %9 = load i64, ptr %6, align 8, !tbaa !8
  %10 = call i64 (i64, ...) @syscall(i64 noundef 0, i32 noundef %7, ptr noundef %8, i64 noundef %9) #7
  ret i64 %10
}

; Function Attrs: inlinehint nounwind uwtable
define internal i32 @mi_prim_open(ptr noundef %0, i32 noundef %1) #5 {
  %3 = alloca ptr, align 8
  %4 = alloca i32, align 4
  store ptr %0, ptr %3, align 8, !tbaa !35
  store i32 %1, ptr %4, align 4, !tbaa !19
  %5 = load ptr, ptr %3, align 8, !tbaa !35
  %6 = load i32, ptr %4, align 4, !tbaa !19
  %7 = call i64 (i64, ...) @syscall(i64 noundef 2, ptr noundef %5, i32 noundef %6, i32 noundef 0) #7
  %8 = trunc i64 %7 to i32
  ret i32 %8
}

; Function Attrs: nounwind uwtable
define hidden zeroext i1 @_mi_prim_random_buf(ptr noundef %0, i64 noundef %1) #0 {
  %3 = alloca i1, align 1
  %4 = alloca ptr, align 8
  %5 = alloca i64, align 8
  %6 = alloca i64, align 8
  %7 = alloca i64, align 8
  %8 = alloca i32, align 4
  %9 = alloca i64, align 8
  %10 = alloca i32, align 4
  %11 = alloca i32, align 4
  %12 = alloca i64, align 8
  %13 = alloca i64, align 8
  store ptr %0, ptr %4, align 8, !tbaa !25
  store i64 %1, ptr %5, align 8, !tbaa !8
  %14 = load atomic i64, ptr @_mi_prim_random_buf.no_getrandom acquire, align 8
  store i64 %14, ptr %6, align 8
  %15 = load i64, ptr %6, align 8, !tbaa !8
  %16 = icmp eq i64 %15, 0
  br i1 %16, label %17, label %37

17:                                               ; preds = %2
  call void @llvm.lifetime.start.p0(i64 8, ptr %7) #6
  %18 = load ptr, ptr %4, align 8, !tbaa !25
  %19 = load i64, ptr %5, align 8, !tbaa !8
  %20 = call i64 (i64, ...) @syscall(i64 noundef 318, ptr noundef %18, i64 noundef %19, i32 noundef 1) #7
  store i64 %20, ptr %7, align 8, !tbaa !8
  %21 = load i64, ptr %7, align 8, !tbaa !8
  %22 = icmp sge i64 %21, 0
  br i1 %22, label %23, label %27

23:                                               ; preds = %17
  %24 = load i64, ptr %5, align 8, !tbaa !8
  %25 = load i64, ptr %7, align 8, !tbaa !8
  %26 = icmp eq i64 %24, %25
  store i1 %26, ptr %3, align 1
  store i32 1, ptr %8, align 4
  br label %34

27:                                               ; preds = %17
  %28 = call ptr @__errno_location() #9
  %29 = load i32, ptr %28, align 4, !tbaa !19
  %30 = icmp ne i32 %29, 38
  br i1 %30, label %31, label %32

31:                                               ; preds = %27
  store i1 false, ptr %3, align 1
  store i32 1, ptr %8, align 4
  br label %34

32:                                               ; preds = %27
  store i64 1, ptr %9, align 8, !tbaa !8
  %33 = load i64, ptr %9, align 8
  store atomic i64 %33, ptr @_mi_prim_random_buf.no_getrandom release, align 8
  store i32 0, ptr %8, align 4
  br label %34

34:                                               ; preds = %32, %31, %23
  call void @llvm.lifetime.end.p0(i64 8, ptr %7) #6
  %35 = load i32, ptr %8, align 4
  switch i32 %35, label %88 [
    i32 0, label %36
    i32 1, label %86
  ]

36:                                               ; preds = %34
  br label %37

37:                                               ; preds = %36, %2
  call void @llvm.lifetime.start.p0(i64 4, ptr %10) #6
  store i32 0, ptr %10, align 4, !tbaa !19
  %38 = load i32, ptr %10, align 4, !tbaa !19
  %39 = or i32 %38, 524288
  store i32 %39, ptr %10, align 4, !tbaa !19
  call void @llvm.lifetime.start.p0(i64 4, ptr %11) #6
  %40 = load i32, ptr %10, align 4, !tbaa !19
  %41 = call i32 @mi_prim_open(ptr noundef @.str.2, i32 noundef %40) #8
  store i32 %41, ptr %11, align 4, !tbaa !19
  %42 = load i32, ptr %11, align 4, !tbaa !19
  %43 = icmp slt i32 %42, 0
  br i1 %43, label %44, label %45

44:                                               ; preds = %37
  store i1 false, ptr %3, align 1
  store i32 1, ptr %8, align 4
  br label %85

45:                                               ; preds = %37
  call void @llvm.lifetime.start.p0(i64 8, ptr %12) #6
  store i64 0, ptr %12, align 8, !tbaa !8
  br label %46

46:                                               ; preds = %78, %45
  %47 = load i64, ptr %12, align 8, !tbaa !8
  %48 = load i64, ptr %5, align 8, !tbaa !8
  %49 = icmp ult i64 %47, %48
  br i1 %49, label %50, label %79

50:                                               ; preds = %46
  call void @llvm.lifetime.start.p0(i64 8, ptr %13) #6
  %51 = load i32, ptr %11, align 4, !tbaa !19
  %52 = load ptr, ptr %4, align 8, !tbaa !25
  %53 = load i64, ptr %12, align 8, !tbaa !8
  %54 = getelementptr inbounds nuw i8, ptr %52, i64 %53
  %55 = load i64, ptr %5, align 8, !tbaa !8
  %56 = load i64, ptr %12, align 8, !tbaa !8
  %57 = sub i64 %55, %56
  %58 = call i64 @mi_prim_read(i32 noundef %51, ptr noundef %54, i64 noundef %57) #8
  store i64 %58, ptr %13, align 8, !tbaa !8
  %59 = load i64, ptr %13, align 8, !tbaa !8
  %60 = icmp sle i64 %59, 0
  br i1 %60, label %61, label %71

61:                                               ; preds = %50
  %62 = call ptr @__errno_location() #9
  %63 = load i32, ptr %62, align 4, !tbaa !19
  %64 = icmp ne i32 %63, 11
  br i1 %64, label %65, label %70

65:                                               ; preds = %61
  %66 = call ptr @__errno_location() #9
  %67 = load i32, ptr %66, align 4, !tbaa !19
  %68 = icmp ne i32 %67, 4
  br i1 %68, label %69, label %70

69:                                               ; preds = %65
  store i32 3, ptr %8, align 4
  br label %76

70:                                               ; preds = %65, %61
  br label %75

71:                                               ; preds = %50
  %72 = load i64, ptr %13, align 8, !tbaa !8
  %73 = load i64, ptr %12, align 8, !tbaa !8
  %74 = add i64 %73, %72
  store i64 %74, ptr %12, align 8, !tbaa !8
  br label %75

75:                                               ; preds = %71, %70
  store i32 0, ptr %8, align 4
  br label %76

76:                                               ; preds = %75, %69
  call void @llvm.lifetime.end.p0(i64 8, ptr %13) #6
  %77 = load i32, ptr %8, align 4
  switch i32 %77, label %88 [
    i32 0, label %78
    i32 3, label %79
  ]

78:                                               ; preds = %76
  br label %46, !llvm.loop !55

79:                                               ; preds = %76, %46
  %80 = load i32, ptr %11, align 4, !tbaa !19
  %81 = call i32 @mi_prim_close(i32 noundef %80) #8
  %82 = load i64, ptr %12, align 8, !tbaa !8
  %83 = load i64, ptr %5, align 8, !tbaa !8
  %84 = icmp eq i64 %82, %83
  store i1 %84, ptr %3, align 1
  store i32 1, ptr %8, align 4
  call void @llvm.lifetime.end.p0(i64 8, ptr %12) #6
  br label %85

85:                                               ; preds = %79, %44
  call void @llvm.lifetime.end.p0(i64 4, ptr %11) #6
  call void @llvm.lifetime.end.p0(i64 4, ptr %10) #6
  br label %86

86:                                               ; preds = %85, %34
  %87 = load i1, ptr %3, align 1
  ret i1 %87

88:                                               ; preds = %76, %34
  unreachable
}